target datalayout = "e-m:e-p270:32:32-p271:32:32-p272:64:64-i64:64-i128:128-f80:128-n8:16:32:64-S128"
target triple = "x86_64-pc-linux-gnu"

%struct.addrinfo = type { i32, i32, i32, i32, i32, ptr, ptr, ptr }
%union.pthread_mutex_t = type { %struct.__pthread_mutex_s }
%struct.__pthread_mutex_s = type { i32, i32, i32, i32, i32, i16, i16, %struct.__pthread_internal_list }
%struct.__pthread_internal_list = type { ptr, ptr }
%struct.fast_fallback_getaddrinfo_shared = type { i32, i32, ptr, ptr, %union.pthread_mutex_t, [0 x %struct.fast_fallback_getaddrinfo_entry] }
%struct.fast_fallback_getaddrinfo_entry = type { i32, i32, i32, %struct.addrinfo, ptr, ptr, i32, i64, i32 }
%struct.__sigset_t = type { [16 x i64] }
%struct.timespec = type { i64, i64 }

; Function Attrs: nounwind sspstrong uwtable
define void @free_fast_fallback_getaddrinfo_shared(ptr noundef %0) #0 {
  %2 = alloca ptr, align 8
  store ptr %0, ptr %2, align 8, !tbaa !153
  %3 = load ptr, ptr %2, align 8, !tbaa !153
  %4 = load ptr, ptr %3, align 8, !tbaa !155
  %5 = getelementptr inbounds nuw %struct.fast_fallback_getaddrinfo_shared, ptr %4, i32 0, i32 2
  %6 = load ptr, ptr %5, align 8, !tbaa !30
  call void @ruby_xfree(ptr noundef %6)
  %7 = load ptr, ptr %2, align 8, !tbaa !153
  %8 = load ptr, ptr %7, align 8, !tbaa !155
  %9 = getelementptr inbounds nuw %struct.fast_fallback_getaddrinfo_shared, ptr %8, i32 0, i32 2
  store ptr null, ptr %9, align 8, !tbaa !30
  %10 = load ptr, ptr %2, align 8, !tbaa !153
  %11 = load ptr, ptr %10, align 8, !tbaa !155
  %12 = getelementptr inbounds nuw %struct.fast_fallback_getaddrinfo_shared, ptr %11, i32 0, i32 3
  %13 = load ptr, ptr %12, align 8, !tbaa !30
  call void @ruby_xfree(ptr noundef %13)
  %14 = load ptr, ptr %2, align 8, !tbaa !153
  %15 = load ptr, ptr %14, align 8, !tbaa !155
  %16 = getelementptr inbounds nuw %struct.fast_fallback_getaddrinfo_shared, ptr %15, i32 0, i32 3
  store ptr null, ptr %16, align 8, !tbaa !30
  %17 = load ptr, ptr %2, align 8, !tbaa !153
  %18 = load ptr, ptr %17, align 8, !tbaa !155
  %19 = getelementptr inbounds nuw %struct.fast_fallback_getaddrinfo_shared, ptr %18, i32 0, i32 4
  call void @rb_nativethread_lock_destroy(ptr noundef %19)
  %20 = load ptr, ptr %2, align 8, !tbaa !153
  %21 = load ptr, ptr %20, align 8, !tbaa !155
  call void @free(ptr noundef %21) #24
  %22 = load ptr, ptr %2, align 8, !tbaa !153
  store ptr null, ptr %22, align 8, !tbaa !155
  ret void
}

; Function Attrs: nounwind sspstrong uwtable
define void @free_fast_fallback_getaddrinfo_entry(ptr noundef %0) #0 {
  %2 = alloca ptr, align 8
  store ptr %0, ptr %2, align 8, !tbaa !157
  %3 = load ptr, ptr %2, align 8, !tbaa !157
  %4 = load ptr, ptr %3, align 8, !tbaa !159
  %5 = getelementptr inbounds nuw %struct.fast_fallback_getaddrinfo_entry, ptr %4, i32 0, i32 4
  %6 = load ptr, ptr %5, align 8, !tbaa !161
  %7 = icmp ne ptr %6, null
  br i1 %7, label %8, label %16

8:                                                ; preds = %1
  %9 = load ptr, ptr %2, align 8, !tbaa !157
  %10 = load ptr, ptr %9, align 8, !tbaa !159
  %11 = getelementptr inbounds nuw %struct.fast_fallback_getaddrinfo_entry, ptr %10, i32 0, i32 4
  %12 = load ptr, ptr %11, align 8, !tbaa !161
  call void @freeaddrinfo(ptr noundef %12) #24
  %13 = load ptr, ptr %2, align 8, !tbaa !157
  %14 = load ptr, ptr %13, align 8, !tbaa !159
  %15 = getelementptr inbounds nuw %struct.fast_fallback_getaddrinfo_entry, ptr %14, i32 0, i32 4
  store ptr null, ptr %15, align 8, !tbaa !161
  br label %16

16:                                               ; preds = %8, %1
  %17 = load ptr, ptr %2, align 8, !tbaa !157
  store ptr null, ptr %17, align 8, !tbaa !159
  ret void
}

; Function Attrs: nounwind sspstrong uwtable
define internal ptr @do_fast_fallback_getaddrinfo(ptr noundef %0) #0 {
  %2 = alloca ptr, align 8
  %3 = alloca ptr, align 8
  %4 = alloca ptr, align 8
  %5 = alloca i32, align 4
  %6 = alloca i32, align 4
  %7 = alloca i32, align 4
  %8 = alloca %struct.__sigset_t, align 8
  %9 = alloca %struct.timespec, align 8
  %10 = alloca i8, align 1
  store ptr %0, ptr %2, align 8, !tbaa !26
  call void @llvm.lifetime.start.p0(i64 8, ptr %3) #24
  %11 = load ptr, ptr %2, align 8, !tbaa !26
  store ptr %11, ptr %3, align 8, !tbaa !159
  call void @llvm.lifetime.start.p0(i64 8, ptr %4) #24
  %12 = load ptr, ptr %3, align 8, !tbaa !159
  %13 = getelementptr inbounds nuw %struct.fast_fallback_getaddrinfo_entry, ptr %12, i32 0, i32 5
  %14 = load ptr, ptr %13, align 8, !tbaa !163
  store ptr %14, ptr %4, align 8, !tbaa !155
  call void @llvm.lifetime.start.p0(i64 4, ptr %5) #24
  store i32 0, ptr %5, align 4, !tbaa !27
  call void @llvm.lifetime.start.p0(i64 4, ptr %6) #24
  store i32 0, ptr %6, align 4, !tbaa !27
  call void @llvm.lifetime.start.p0(i64 4, ptr %7) #24
  store i32 0, ptr %7, align 4, !tbaa !27
  call void @llvm.lifetime.start.p0(i64 128, ptr %8) #24
  %15 = call i32 @sigemptyset(ptr noundef %8) #24
  %16 = call i32 @sigaddset(ptr noundef %8, i32 noundef 13) #24
  %17 = call i32 @pthread_sigmask(i32 noundef 0, ptr noundef %8, ptr noundef null) #24
  %18 = load ptr, ptr %4, align 8, !tbaa !155
  %19 = getelementptr inbounds nuw %struct.fast_fallback_getaddrinfo_shared, ptr %18, i32 0, i32 2
  %20 = load ptr, ptr %19, align 8, !tbaa !30
  %21 = load ptr, ptr %4, align 8, !tbaa !155
  %22 = getelementptr inbounds nuw %struct.fast_fallback_getaddrinfo_shared, ptr %21, i32 0, i32 3
  %23 = load ptr, ptr %22, align 8, !tbaa !30
  %24 = load ptr, ptr %3, align 8, !tbaa !159
  %25 = getelementptr inbounds nuw %struct.fast_fallback_getaddrinfo_entry, ptr %24, i32 0, i32 3
  %26 = load ptr, ptr %3, align 8, !tbaa !159
  %27 = getelementptr inbounds nuw %struct.fast_fallback_getaddrinfo_entry, ptr %26, i32 0, i32 4
  %28 = call i32 @numeric_getaddrinfo(ptr noundef %20, ptr noundef %23, ptr noundef %25, ptr noundef %27)
  store i32 %28, ptr %5, align 4, !tbaa !27
  %29 = load i32, ptr %5, align 4, !tbaa !27
  %30 = icmp ne i32 %29, 0
  br i1 %30, label %31, label %51

31:                                               ; preds = %1
  %32 = load ptr, ptr %4, align 8, !tbaa !155
  %33 = getelementptr inbounds nuw %struct.fast_fallback_getaddrinfo_shared, ptr %32, i32 0, i32 2
  %34 = load ptr, ptr %33, align 8, !tbaa !30
  %35 = load ptr, ptr %4, align 8, !tbaa !155
  %36 = getelementptr inbounds nuw %struct.fast_fallback_getaddrinfo_shared, ptr %35, i32 0, i32 3
  %37 = load ptr, ptr %36, align 8, !tbaa !30
  %38 = load ptr, ptr %3, align 8, !tbaa !159
  %39 = getelementptr inbounds nuw %struct.fast_fallback_getaddrinfo_entry, ptr %38, i32 0, i32 3
  %40 = load ptr, ptr %3, align 8, !tbaa !159
  %41 = getelementptr inbounds nuw %struct.fast_fallback_getaddrinfo_entry, ptr %40, i32 0, i32 4
  %42 = call i32 @getaddrinfo(ptr noundef %34, ptr noundef %37, ptr noundef %39, ptr noundef %41)
  store i32 %42, ptr %5, align 4, !tbaa !27
  %43 = load i32, ptr %5, align 4, !tbaa !27
  %44 = icmp eq i32 %43, -11
  br i1 %44, label %45, label %50

45:                                               ; preds = %31
  %46 = call ptr @rb_errno_ptr()
  %47 = load i32, ptr %46, align 4, !tbaa !27
  %48 = icmp eq i32 %47, 2
  br i1 %48, label %49, label %50

49:                                               ; preds = %45
  store i32 -2, ptr %5, align 4, !tbaa !27
  br label %50

50:                                               ; preds = %49, %45, %31
  br label %51

51:                                               ; preds = %50, %1
  %52 = load ptr, ptr %3, align 8, !tbaa !159
  %53 = getelementptr inbounds nuw %struct.fast_fallback_getaddrinfo_entry, ptr %52, i32 0, i32 7
  %54 = load i64, ptr %53, align 8, !tbaa !164
  %55 = icmp sgt i64 %54, 0
  br i1 %55, label %56, label %84

56:                                               ; preds = %51
  call void @llvm.lifetime.start.p0(i64 16, ptr %9) #24
  %57 = load ptr, ptr %3, align 8, !tbaa !159
  %58 = getelementptr inbounds nuw %struct.fast_fallback_getaddrinfo_entry, ptr %57, i32 0, i32 7
  %59 = load i64, ptr %58, align 8, !tbaa !164
  %60 = sdiv i64 %59, 1000
  %61 = getelementptr inbounds nuw %struct.timespec, ptr %9, i32 0, i32 0
  store i64 %60, ptr %61, align 8, !tbaa !165
  %62 = load ptr, ptr %3, align 8, !tbaa !159
  %63 = getelementptr inbounds nuw %struct.fast_fallback_getaddrinfo_entry, ptr %62, i32 0, i32 7
  %64 = load i64, ptr %63, align 8, !tbaa !164
  %65 = srem i64 %64, 1000
  %66 = mul nsw i64 %65, 1000000
  %67 = getelementptr inbounds nuw %struct.timespec, ptr %9, i32 0, i32 1
  store i64 %66, ptr %67, align 8, !tbaa !167
  %68 = getelementptr inbounds nuw %struct.timespec, ptr %9, i32 0, i32 1
  %69 = load i64, ptr %68, align 8, !tbaa !167
  %70 = icmp sge i64 %69, 1000000000
  br i1 %70, label %71, label %82

71:                                               ; preds = %56
  %72 = getelementptr inbounds nuw %struct.timespec, ptr %9, i32 0, i32 1
  %73 = load i64, ptr %72, align 8, !tbaa !167
  %74 = sdiv i64 %73, 1000000000
  %75 = getelementptr inbounds nuw %struct.timespec, ptr %9, i32 0, i32 0
  %76 = load i64, ptr %75, align 8, !tbaa !165
  %77 = add nsw i64 %76, %74
  store i64 %77, ptr %75, align 8, !tbaa !165
  %78 = getelementptr inbounds nuw %struct.timespec, ptr %9, i32 0, i32 1
  %79 = load i64, ptr %78, align 8, !tbaa !167
  %80 = srem i64 %79, 1000000000
  %81 = getelementptr inbounds nuw %struct.timespec, ptr %9, i32 0, i32 1
  store i64 %80, ptr %81, align 8, !tbaa !167
  br label %82

82:                                               ; preds = %71, %56
  %83 = call i32 @nanosleep(ptr noundef %9, ptr noundef null)
  call void @llvm.lifetime.end.p0(i64 16, ptr %9) #24
  br label %84

84:                                               ; preds = %82, %51
  %85 = load ptr, ptr %3, align 8, !tbaa !159
  %86 = getelementptr inbounds nuw %struct.fast_fallback_getaddrinfo_entry, ptr %85, i32 0, i32 8
  %87 = load i32, ptr %86, align 8, !tbaa !168
  %88 = icmp ne i32 %87, 0
  br i1 %88, label %89, label %104

89:                                               ; preds = %84
  %90 = load ptr, ptr %3, align 8, !tbaa !159
  %91 = getelementptr inbounds nuw %struct.fast_fallback_getaddrinfo_entry, ptr %90, i32 0, i32 8
  %92 = load i32, ptr %91, align 8, !tbaa !168
  store i32 %92, ptr %5, align 4, !tbaa !27
  %93 = load ptr, ptr %3, align 8, !tbaa !159
  %94 = getelementptr inbounds nuw %struct.fast_fallback_getaddrinfo_entry, ptr %93, i32 0, i32 4
  %95 = load ptr, ptr %94, align 8, !tbaa !161
  %96 = icmp ne ptr %95, null
  br i1 %96, label %97, label %103

97:                                               ; preds = %89
  %98 = load ptr, ptr %3, align 8, !tbaa !159
  %99 = getelementptr inbounds nuw %struct.fast_fallback_getaddrinfo_entry, ptr %98, i32 0, i32 4
  %100 = load ptr, ptr %99, align 8, !tbaa !161
  call void @freeaddrinfo(ptr noundef %100) #24
  %101 = load ptr, ptr %3, align 8, !tbaa !159
  %102 = getelementptr inbounds nuw %struct.fast_fallback_getaddrinfo_entry, ptr %101, i32 0, i32 4
  store ptr null, ptr %102, align 8, !tbaa !161
  br label %103

103:                                              ; preds = %97, %89
  br label %104

104:                                              ; preds = %103, %84
  %105 = load ptr, ptr %4, align 8, !tbaa !155
  %106 = getelementptr inbounds nuw %struct.fast_fallback_getaddrinfo_shared, ptr %105, i32 0, i32 4
  call void @rb_nativethread_lock_lock(ptr noundef %106)
  %107 = load i32, ptr %5, align 4, !tbaa !27
  %108 = load ptr, ptr %3, align 8, !tbaa !159
  %109 = getelementptr inbounds nuw %struct.fast_fallback_getaddrinfo_entry, ptr %108, i32 0, i32 1
  store i32 %107, ptr %109, align 4, !tbaa !169
  call void @llvm.lifetime.start.p0(i64 1, ptr %10) #24
  %110 = load ptr, ptr %3, align 8, !tbaa !159
  %111 = getelementptr inbounds nuw %struct.fast_fallback_getaddrinfo_entry, ptr %110, i32 0, i32 0
  %112 = load i32, ptr %111, align 8, !tbaa !170
  %113 = icmp eq i32 %112, 10
  %114 = select i1 %113, i32 49, i32 50
  %115 = trunc i32 %114 to i8
  store i8 %115, ptr %10, align 1, !tbaa !51
  %116 = load ptr, ptr %4, align 8, !tbaa !155
  %117 = getelementptr inbounds nuw %struct.fast_fallback_getaddrinfo_shared, ptr %116, i32 0, i32 0
  %118 = load i32, ptr %117, align 8, !tbaa !27
  %119 = icmp ne i32 %118, -1
  br i1 %119, label %120, label %133

120:                                              ; preds = %104
  %121 = load ptr, ptr %4, align 8, !tbaa !155
  %122 = getelementptr inbounds nuw %struct.fast_fallback_getaddrinfo_shared, ptr %121, i32 0, i32 0
  %123 = load i32, ptr %122, align 8, !tbaa !27
  %124 = call i64 @write(i32 noundef %123, ptr noundef %10, i64 noundef 1)
  %125 = icmp slt i64 %124, 0
  br i1 %125, label %126, label %133

126:                                              ; preds = %120
  %127 = call ptr @rb_errno_ptr()
  %128 = load i32, ptr %127, align 4, !tbaa !27
  %129 = load ptr, ptr %3, align 8, !tbaa !159
  %130 = getelementptr inbounds nuw %struct.fast_fallback_getaddrinfo_entry, ptr %129, i32 0, i32 1
  store i32 %128, ptr %130, align 4, !tbaa !169
  %131 = load ptr, ptr %3, align 8, !tbaa !159
  %132 = getelementptr inbounds nuw %struct.fast_fallback_getaddrinfo_entry, ptr %131, i32 0, i32 6
  store i32 1, ptr %132, align 8, !tbaa !171
  br label %133

133:                                              ; preds = %126, %120, %104
  %134 = load ptr, ptr %3, align 8, !tbaa !159
  %135 = getelementptr inbounds nuw %struct.fast_fallback_getaddrinfo_entry, ptr %134, i32 0, i32 2
  %136 = load i32, ptr %135, align 8, !tbaa !172
  %137 = add nsw i32 %136, -1
  store i32 %137, ptr %135, align 8, !tbaa !172
  %138 = icmp eq i32 %137, 0
  br i1 %138, label %139, label %140

139:                                              ; preds = %133
  store i32 1, ptr %6, align 4, !tbaa !27
  br label %140

140:                                              ; preds = %139, %133
  %141 = load ptr, ptr %4, align 8, !tbaa !155
  %142 = getelementptr inbounds nuw %struct.fast_fallback_getaddrinfo_shared, ptr %141, i32 0, i32 1
  %143 = load i32, ptr %142, align 4, !tbaa !27
  %144 = add nsw i32 %143, -1
  store i32 %144, ptr %142, align 4, !tbaa !27
  %145 = icmp eq i32 %144, 0
  br i1 %145, label %146, label %147

146:                                              ; preds = %140
  store i32 1, ptr %7, align 4, !tbaa !27
  br label %147

147:                                              ; preds = %146, %140
  call void @llvm.lifetime.end.p0(i64 1, ptr %10) #24
  %148 = load ptr, ptr %4, align 8, !tbaa !155
  %149 = getelementptr inbounds nuw %struct.fast_fallback_getaddrinfo_shared, ptr %148, i32 0, i32 4
  call void @rb_nativethread_lock_unlock(ptr noundef %149)
  %150 = load i32, ptr %6, align 4, !tbaa !27
  %151 = icmp ne i32 %150, 0
  br i1 %151, label %152, label %156

152:                                              ; preds = %147
  %153 = load ptr, ptr %3, align 8, !tbaa !159
  %154 = icmp ne ptr %153, null
  br i1 %154, label %155, label %156

155:                                              ; preds = %152
  call void @free_fast_fallback_getaddrinfo_entry(ptr noundef %3)
  br label %156

156:                                              ; preds = %155, %152, %147
  %157 = load i32, ptr %7, align 4, !tbaa !27
  %158 = icmp ne i32 %157, 0
  br i1 %158, label %159, label %163

159:                                              ; preds = %156
  %160 = load ptr, ptr %4, align 8, !tbaa !155
  %161 = icmp ne ptr %160, null
  br i1 %161, label %162, label %163

162:                                              ; preds = %159
  call void @free_fast_fallback_getaddrinfo_shared(ptr noundef %4)
  br label %163

163:                                              ; preds = %162, %159, %156
  call void @llvm.lifetime.end.p0(i64 128, ptr %8) #24
  call void @llvm.lifetime.end.p0(i64 4, ptr %7) #24
  call void @llvm.lifetime.end.p0(i64 4, ptr %6) #24
  call void @llvm.lifetime.end.p0(i64 4, ptr %5) #24
  call void @llvm.lifetime.end.p0(i64 8, ptr %4) #24
  call void @llvm.lifetime.end.p0(i64 8, ptr %3) #24
  ret ptr null
}