; Function Attrs: nounwind sspstrong uwtable
define internal noalias noundef ptr @do_fast_fallback_getaddrinfo(ptr noundef %0) #0 {
  %2 = alloca %struct.__sigset_t, align 8
  %3 = alloca %struct.timespec, align 8
  %4 = alloca i8, align 1
  %5 = getelementptr inbounds nuw i8, ptr %0, i64 72
  %6 = load ptr, ptr %5, align 8, !tbaa !154
  call void @llvm.lifetime.start.p0(i64 128, ptr nonnull %2) #21
  %7 = call i32 @sigemptyset(ptr noundef nonnull %2) #21
  %8 = call i32 @sigaddset(ptr noundef nonnull %2, i32 noundef 13) #21
  %9 = call i32 @pthread_sigmask(i32 noundef 0, ptr noundef nonnull %2, ptr noundef null) #21
  %10 = getelementptr inbounds nuw i8, ptr %6, i64 8
  %11 = load ptr, ptr %10, align 8, !tbaa !61
  %12 = getelementptr inbounds nuw i8, ptr %6, i64 16
  %13 = load ptr, ptr %12, align 8, !tbaa !61
  %14 = getelementptr inbounds nuw i8, ptr %0, i64 16
  %15 = getelementptr inbounds nuw i8, ptr %0, i64 64
  %16 = call fastcc i32 @numeric_getaddrinfo(ptr noundef %11, ptr noundef %13, ptr noundef nonnull %14, ptr noundef nonnull %15)
  %.not = icmp eq i32 %16, 0
  br i1 %.not, label %26, label %17

17:                                               ; preds = %1
  %18 = load ptr, ptr %10, align 8, !tbaa !61
  %19 = load ptr, ptr %12, align 8, !tbaa !61
  %20 = call i32 @getaddrinfo(ptr noundef %18, ptr noundef %19, ptr noundef nonnull %14, ptr noundef nonnull %15) #21
  %21 = icmp eq i32 %20, -11
  br i1 %21, label %22, label %26

22:                                               ; preds = %17
  %23 = call ptr @rb_errno_ptr() #21
  %24 = load i32, ptr %23, align 4, !tbaa !34
  %25 = icmp eq i32 %24, 2
  %spec.select = select i1 %25, i32 -2, i32 -11
  br label %26

26:                                               ; preds = %22, %17, %1
  %.09 = phi i32 [ %20, %17 ], [ 0, %1 ], [ %spec.select, %22 ]
  %27 = getelementptr inbounds nuw i8, ptr %0, i64 88
  %28 = load i64, ptr %27, align 8, !tbaa !155
  %29 = icmp sgt i64 %28, 0
  br i1 %29, label %30, label %36

30:                                               ; preds = %26
  call void @llvm.lifetime.start.p0(i64 16, ptr nonnull %3) #21
  %31 = udiv i64 %28, 1000
  store i64 %31, ptr %3, align 8, !tbaa !156
  %32 = urem i64 %28, 1000
  %33 = mul nuw nsw i64 %32, 1000000
  %34 = getelementptr inbounds nuw i8, ptr %3, i64 8
  store i64 %33, ptr %34, align 8, !tbaa !158
  %35 = call i32 @nanosleep(ptr noundef nonnull %3, ptr noundef null) #21
  call void @llvm.lifetime.end.p0(i64 16, ptr nonnull %3) #21
  br label %36

36:                                               ; preds = %30, %26
  %37 = getelementptr inbounds nuw i8, ptr %0, i64 96
  %38 = load i32, ptr %37, align 8, !tbaa !159
  %.not17 = icmp eq i32 %38, 0
  br i1 %.not17, label %42, label %39

39:                                               ; preds = %36
  %40 = load ptr, ptr %15, align 8, !tbaa !152
  %.not18 = icmp eq ptr %40, null
  br i1 %.not18, label %42, label %41

41:                                               ; preds = %39
  call void @freeaddrinfo(ptr noundef nonnull %40) #21
  store ptr null, ptr %15, align 8, !tbaa !152
  br label %42

42:                                               ; preds = %39, %41, %36
  %.1 = phi i32 [ %38, %41 ], [ %38, %39 ], [ %.09, %36 ]
  %43 = getelementptr inbounds nuw i8, ptr %6, i64 24
  call void @rb_nativethread_lock_lock(ptr noundef nonnull %43) #21
  %44 = getelementptr inbounds nuw i8, ptr %0, i64 4
  store i32 %.1, ptr %44, align 4, !tbaa !160
  call void @llvm.lifetime.start.p0(i64 1, ptr nonnull %4) #21
  %45 = load i32, ptr %0, align 8, !tbaa !161
  %46 = icmp eq i32 %45, 10
  %47 = select i1 %46, i8 49, i8 50
  store i8 %47, ptr %4, align 1, !tbaa !49
  %48 = load i32, ptr %6, align 8, !tbaa !34
  %.not19 = icmp eq i32 %48, -1
  br i1 %.not19, label %56, label %49

49:                                               ; preds = %42
  %50 = call i64 @write(i32 noundef %48, ptr noundef nonnull %4, i64 noundef 1) #21
  %51 = icmp slt i64 %50, 0
  br i1 %51, label %52, label %56

52:                                               ; preds = %49
  %53 = call ptr @rb_errno_ptr() #21
  %54 = load i32, ptr %53, align 4, !tbaa !34
  store i32 %54, ptr %44, align 4, !tbaa !160
  %55 = getelementptr inbounds nuw i8, ptr %0, i64 80
  store i32 1, ptr %55, align 8, !tbaa !162
  br label %56

56:                                               ; preds = %52, %49, %42
  %57 = getelementptr inbounds nuw i8, ptr %0, i64 8
  %58 = load i32, ptr %57, align 8, !tbaa !163
  %59 = add nsw i32 %58, -1
  store i32 %59, ptr %57, align 8, !tbaa !163
  %60 = icmp eq i32 %59, 0
  %61 = getelementptr inbounds nuw i8, ptr %6, i64 4
  %62 = load i32, ptr %61, align 4, !tbaa !34
  %63 = add nsw i32 %62, -1
  store i32 %63, ptr %61, align 4, !tbaa !34
  %64 = icmp eq i32 %63, 0
  call void @llvm.lifetime.end.p0(i64 1, ptr nonnull %4) #21
  call void @rb_nativethread_lock_unlock(ptr noundef nonnull %43) #21
  br i1 %60, label %65, label %free_fast_fallback_getaddrinfo_entry.exit

65:                                               ; preds = %56
  %66 = load ptr, ptr %15, align 8, !tbaa !152
  %.not.i = icmp eq ptr %66, null
  br i1 %.not.i, label %free_fast_fallback_getaddrinfo_entry.exit, label %67

67:                                               ; preds = %65
  call void @freeaddrinfo(ptr noundef nonnull %66) #21
  store ptr null, ptr %15, align 8, !tbaa !152
  br label %free_fast_fallback_getaddrinfo_entry.exit

free_fast_fallback_getaddrinfo_entry.exit:        ; preds = %67, %65, %56
  br i1 %64, label %68, label %71

68:                                               ; preds = %free_fast_fallback_getaddrinfo_entry.exit
  %69 = load ptr, ptr %10, align 8, !tbaa !61
  call void @ruby_xfree(ptr noundef %69) #21
  store ptr null, ptr %10, align 8, !tbaa !61
  %70 = load ptr, ptr %12, align 8, !tbaa !61
  call void @ruby_xfree(ptr noundef %70) #21
  store ptr null, ptr %12, align 8, !tbaa !61
  call void @rb_nativethread_lock_destroy(ptr noundef nonnull %43) #21
  call void @free(ptr noundef nonnull %6) #21
  br label %71

71:                                               ; preds = %68, %free_fast_fallback_getaddrinfo_entry.exit
  call void @llvm.lifetime.end.p0(i64 128, ptr nonnull %2) #21
  ret ptr null
}